   1              		.file	"c_payload.c"
   2              		.section	.rodata
   3              		.align	2
   4              	.LC0:
   5 0000 0A232320 		.ascii	"\n##     ##    ###     ######  ##    ## ######## ########  \r"
   5      20202020 
   5      23232020 
   5      20202323 
   5      23202020 
   6 003b 0A232320 		.ascii	"\n##     ##   ## ##   ##    ## ##   ##  ##       ##     ## \r"
   6      20202020 
   6      23232020 
   6      20232320 
   6      23232020 
   7 0076 0A232320 		.ascii	"\n##     ##  ##   ##  ##       ##  ##   #"
   7      20202020 
   7      23232020 
   7      23232020 
   7      20232320 
   8 009e 23202020 		.string	"#       ##     ## \r\n######### ##     ## ##       #####    ######   ##     ## \r\n##    
   8      20202020 
   8      23232020 
   8      20202023 
   8      23200D0A 
   9 019f 00       		.align	2
  10              	.LC1:
  11 01a0 0C00     		.string	"\f"
  12 01a2 0000     		.align	2
  13              	.LC2:
  14 01a4 0A00     		.string	"\n"
  15 01a6 0000     		.align	2
  16              	.LC3:
  17 01a8 257300   		.string	"%s"
  18              		.text
  19              		.align	2
  20              		.globl	payload
  22              	payload:
  23 0000 130101FD 		add	sp,sp,-48
  24 0004 23261102 		sw	ra,44(sp)
  25 0008 B7070000 		lui	a5,%hi(.LC0)
  26 000c 93870700 		add	a5,a5,%lo(.LC0)
  27 0010 2326F100 		sw	a5,12(sp)
  28 0014 23240100 		sw	zero,8(sp)
  29              	.L10:
  30 0018 93050000 		li	a1,0
  31 001c B7970000 		li	a5,36864
  32 0020 13850770 		add	a0,a5,1792
  33 0024 17030000 		call	setLeds
  33      E7000300 
  34 002c 232E0100 		sw	zero,28(sp)
  35 0030 6F004007 		j	.L2
  36              	.L5:
  37 0034 B7070000 		lui	a5,%hi(.LC1)
  38 0038 13850700 		add	a0,a5,%lo(.LC1)
  39 003c 17030000 		call	printf
  39      E7000300 
  40 0044 232C0100 		sw	zero,24(sp)
  41 0048 6F000002 		j	.L3
  42              	.L4:
  43 004c B7070000 		lui	a5,%hi(.LC2)
  44 0050 13850700 		add	a0,a5,%lo(.LC2)
  45 0054 17030000 		call	printf
  45      E7000300 
  46 005c 83278101 		lw	a5,24(sp)
  47 0060 93871700 		add	a5,a5,1
  48 0064 232CF100 		sw	a5,24(sp)
  49              	.L3:
  50 0068 8327C101 		lw	a5,28(sp)
  51 006c 1387A700 		add	a4,a5,10
  52 0070 83278101 		lw	a5,24(sp)
  53 0074 E3CCE7FC 		bgt	a4,a5,.L4
  54 0078 8325C100 		lw	a1,12(sp)
  55 007c B7070000 		lui	a5,%hi(.LC3)
  56 0080 13850700 		add	a0,a5,%lo(.LC3)
  57 0084 17030000 		call	printf
  57      E7000300 
  58 008c 13054006 		li	a0,100
  59 0090 17030000 		call	vTaskDelay
  59      E7000300 
  60 0098 8327C101 		lw	a5,28(sp)
  61 009c 93871700 		add	a5,a5,1
  62 00a0 232EF100 		sw	a5,28(sp)
  63              	.L2:
  64 00a4 0327C101 		lw	a4,28(sp)
  65 00a8 93079000 		li	a5,9
  66 00ac E3D4E7F8 		ble	a4,a5,.L5
  67 00b0 9307A000 		li	a5,10
  68 00b4 232AF100 		sw	a5,20(sp)
  69 00b8 6F004007 		j	.L6
  70              	.L9:
  71 00bc B7070000 		lui	a5,%hi(.LC1)
  72 00c0 13850700 		add	a0,a5,%lo(.LC1)
  73 00c4 17030000 		call	printf
  73      E7000300 
  74 00cc 23280100 		sw	zero,16(sp)
  75 00d0 6F000002 		j	.L7
  76              	.L8:
  77 00d4 B7070000 		lui	a5,%hi(.LC2)
  78 00d8 13850700 		add	a0,a5,%lo(.LC2)
  79 00dc 17030000 		call	printf
  79      E7000300 
  80 00e4 83270101 		lw	a5,16(sp)
  81 00e8 93871700 		add	a5,a5,1
  82 00ec 2328F100 		sw	a5,16(sp)
  83              	.L7:
  84 00f0 83274101 		lw	a5,20(sp)
  85 00f4 1387A700 		add	a4,a5,10
  86 00f8 83270101 		lw	a5,16(sp)
  87 00fc E3CCE7FC 		bgt	a4,a5,.L8
  88 0100 8325C100 		lw	a1,12(sp)
  89 0104 B7070000 		lui	a5,%hi(.LC3)
  90 0108 13850700 		add	a0,a5,%lo(.LC3)
  91 010c 17030000 		call	printf
  91      E7000300 
  92 0114 13054006 		li	a0,100
  93 0118 17030000 		call	vTaskDelay
  93      E7000300 
  94 0120 83274101 		lw	a5,20(sp)
  95 0124 9387F7FF 		add	a5,a5,-1
  96 0128 232AF100 		sw	a5,20(sp)
  97              	.L6:
  98 012c 83274101 		lw	a5,20(sp)
  99 0130 E346F0F8 		bgtz	a5,.L9
 100 0134 6FF05FEE 		j	.L10
 102              		.ident	"GCC: (GNU) 6.1.0"
DEFINED SYMBOLS
                            *ABS*:0000000000000000 c_payload.c
     /tmp/ccjFJrtO.s:22     .text:0000000000000000 payload
     /tmp/ccjFJrtO.s:4      .rodata:0000000000000000 .LC0
     /tmp/ccjFJrtO.s:10     .rodata:00000000000001a0 .LC1
     /tmp/ccjFJrtO.s:13     .rodata:00000000000001a4 .LC2
     /tmp/ccjFJrtO.s:16     .rodata:00000000000001a8 .LC3
     /tmp/ccjFJrtO.s:63     .text:00000000000000a4 .L2
     /tmp/ccjFJrtO.s:49     .text:0000000000000068 .L3
     /tmp/ccjFJrtO.s:42     .text:000000000000004c .L4
     /tmp/ccjFJrtO.s:36     .text:0000000000000034 .L5
     /tmp/ccjFJrtO.s:97     .text:000000000000012c .L6
     /tmp/ccjFJrtO.s:83     .text:00000000000000f0 .L7
     /tmp/ccjFJrtO.s:76     .text:00000000000000d4 .L8
     /tmp/ccjFJrtO.s:70     .text:00000000000000bc .L9
     /tmp/ccjFJrtO.s:29     .text:0000000000000018 .L10

UNDEFINED SYMBOLS
setLeds
printf
vTaskDelay
