
work/payload.elf:     file format elf32-littleriscv


Disassembly of section .text:

8000d290 <payload>:
8000d290:	fd010113          	addi	sp,sp,-48
8000d294:	02112623          	sw	ra,44(sp)
8000d298:	8000d7b7          	lui	a5,0x8000d
8000d29c:	3c878793          	addi	a5,a5,968 # 8000d3c8 <_gp+0xfffff655>
8000d2a0:	00f12623          	sw	a5,12(sp)
8000d2a4:	00012423          	sw	zero,8(sp)
8000d2a8:	00000593          	li	a1,0
8000d2ac:	000097b7          	lui	a5,0x9
8000d2b0:	70078513          	addi	a0,a5,1792 # 9700 <tgt_STACK_SIZE+0x9300>
8000d2b4:	e001a317          	auipc	t1,0xe001a
8000d2b8:	f6c300e7          	jalr	t1,-148 # 60027220 <setLeds>
8000d2bc:	00012e23          	sw	zero,28(sp)
8000d2c0:	0740006f          	j	8000d334 <payload+0xa4>
8000d2c4:	8000d7b7          	lui	a5,0x8000d
8000d2c8:	56878513          	addi	a0,a5,1384 # 8000d568 <_gp+0xfffff7f5>
8000d2cc:	e001b317          	auipc	t1,0xe001b
8000d2d0:	ad8300e7          	jalr	t1,-1320 # 60027da4 <printf>
8000d2d4:	00012c23          	sw	zero,24(sp)
8000d2d8:	0200006f          	j	8000d2f8 <payload+0x68>
8000d2dc:	8000d7b7          	lui	a5,0x8000d
8000d2e0:	56c78513          	addi	a0,a5,1388 # 8000d56c <_gp+0xfffff7f9>
8000d2e4:	e001b317          	auipc	t1,0xe001b
8000d2e8:	ac0300e7          	jalr	t1,-1344 # 60027da4 <printf>
8000d2ec:	01812783          	lw	a5,24(sp)
8000d2f0:	00178793          	addi	a5,a5,1
8000d2f4:	00f12c23          	sw	a5,24(sp)
8000d2f8:	01c12783          	lw	a5,28(sp)
8000d2fc:	00a78713          	addi	a4,a5,10
8000d300:	01812783          	lw	a5,24(sp)
8000d304:	fce7cce3          	blt	a5,a4,8000d2dc <payload+0x4c>
8000d308:	00c12583          	lw	a1,12(sp)
8000d30c:	8000d7b7          	lui	a5,0x8000d
8000d310:	57078513          	addi	a0,a5,1392 # 8000d570 <_gp+0xfffff7fd>
8000d314:	e001b317          	auipc	t1,0xe001b
8000d318:	a90300e7          	jalr	t1,-1392 # 60027da4 <printf>
8000d31c:	06400513          	li	a0,100
8000d320:	e0015317          	auipc	t1,0xe0015
8000d324:	f18300e7          	jalr	t1,-232 # 60022238 <vTaskDelay>
8000d328:	01c12783          	lw	a5,28(sp)
8000d32c:	00178793          	addi	a5,a5,1
8000d330:	00f12e23          	sw	a5,28(sp)
8000d334:	01c12703          	lw	a4,28(sp)
8000d338:	00900793          	li	a5,9
8000d33c:	f8e7d4e3          	ble	a4,a5,8000d2c4 <payload+0x34>
8000d340:	00a00793          	li	a5,10
8000d344:	00f12a23          	sw	a5,20(sp)
8000d348:	0740006f          	j	8000d3bc <payload+0x12c>
8000d34c:	8000d7b7          	lui	a5,0x8000d
8000d350:	56878513          	addi	a0,a5,1384 # 8000d568 <_gp+0xfffff7f5>
8000d354:	e001b317          	auipc	t1,0xe001b
8000d358:	a50300e7          	jalr	t1,-1456 # 60027da4 <printf>
8000d35c:	00012823          	sw	zero,16(sp)
8000d360:	0200006f          	j	8000d380 <payload+0xf0>
8000d364:	8000d7b7          	lui	a5,0x8000d
8000d368:	56c78513          	addi	a0,a5,1388 # 8000d56c <_gp+0xfffff7f9>
8000d36c:	e001b317          	auipc	t1,0xe001b
8000d370:	a38300e7          	jalr	t1,-1480 # 60027da4 <printf>
8000d374:	01012783          	lw	a5,16(sp)
8000d378:	00178793          	addi	a5,a5,1
8000d37c:	00f12823          	sw	a5,16(sp)
8000d380:	01412783          	lw	a5,20(sp)
8000d384:	00a78713          	addi	a4,a5,10
8000d388:	01012783          	lw	a5,16(sp)
8000d38c:	fce7cce3          	blt	a5,a4,8000d364 <payload+0xd4>
8000d390:	00c12583          	lw	a1,12(sp)
8000d394:	8000d7b7          	lui	a5,0x8000d
8000d398:	57078513          	addi	a0,a5,1392 # 8000d570 <_gp+0xfffff7fd>
8000d39c:	e001b317          	auipc	t1,0xe001b
8000d3a0:	a08300e7          	jalr	t1,-1528 # 60027da4 <printf>
8000d3a4:	06400513          	li	a0,100
8000d3a8:	e0015317          	auipc	t1,0xe0015
8000d3ac:	e90300e7          	jalr	t1,-368 # 60022238 <vTaskDelay>
8000d3b0:	01412783          	lw	a5,20(sp)
8000d3b4:	fff78793          	addi	a5,a5,-1
8000d3b8:	00f12a23          	sw	a5,20(sp)
8000d3bc:	01412783          	lw	a5,20(sp)
8000d3c0:	f8f046e3          	bgtz	a5,8000d34c <payload+0xbc>
8000d3c4:	ee5ff06f          	j	8000d2a8 <payload+0x18>

Disassembly of section .rodata:

8000d3c8 <__rodata_start>:
8000d3c8:	230a                	fld	ft6,128(sp)
8000d3ca:	20202023          	sw	sp,512(zero) # 200 <tgt_HEAP_SIZE+0x200>
8000d3ce:	2020                	fld	fs0,64(s0)
8000d3d0:	20202323          	sw	sp,518(zero) # 206 <tgt_HEAP_SIZE+0x206>
8000d3d4:	2020                	fld	fs0,64(s0)
8000d3d6:	20232323          	sw	sp,518(t1)
8000d3da:	2020                	fld	fs0,64(s0)
8000d3dc:	2020                	fld	fs0,64(s0)
8000d3de:	23232323          	sw	s2,550(t1)
8000d3e2:	20202323          	sw	sp,518(zero) # 206 <tgt_HEAP_SIZE+0x206>
8000d3e6:	20202323          	sw	sp,518(zero) # 206 <tgt_HEAP_SIZE+0x206>
8000d3ea:	2020                	fld	fs0,64(s0)
8000d3ec:	23202323          	sw	s2,550(zero) # 226 <tgt_HEAP_SIZE+0x226>
8000d3f0:	23232323          	sw	s2,550(t1)
8000d3f4:	20232323          	sw	sp,518(t1)
8000d3f8:	23232323          	sw	s2,550(t1)
8000d3fc:	23232323          	sw	s2,550(t1)
8000d400:	2020                	fld	fs0,64(s0)
8000d402:	0a0d                	addi	s4,s4,3
8000d404:	20202323          	sw	sp,518(zero) # 206 <tgt_HEAP_SIZE+0x206>
8000d408:	2020                	fld	fs0,64(s0)
8000d40a:	2320                	fld	fs0,64(a4)
8000d40c:	20202023          	sw	sp,512(zero) # 200 <tgt_HEAP_SIZE+0x200>
8000d410:	23202323          	sw	s2,550(zero) # 226 <tgt_HEAP_SIZE+0x226>
8000d414:	20202023          	sw	sp,512(zero) # 200 <tgt_HEAP_SIZE+0x200>
8000d418:	20202323          	sw	sp,518(zero) # 206 <tgt_HEAP_SIZE+0x206>
8000d41c:	2020                	fld	fs0,64(s0)
8000d41e:	23202323          	sw	s2,550(zero) # 226 <tgt_HEAP_SIZE+0x226>
8000d422:	20202023          	sw	sp,512(zero) # 200 <tgt_HEAP_SIZE+0x200>
8000d426:	20202323          	sw	sp,518(zero) # 206 <tgt_HEAP_SIZE+0x206>
8000d42a:	20202323          	sw	sp,518(zero) # 206 <tgt_HEAP_SIZE+0x206>
8000d42e:	2020                	fld	fs0,64(s0)
8000d430:	2020                	fld	fs0,64(s0)
8000d432:	2320                	fld	fs0,64(a4)
8000d434:	20202023          	sw	sp,512(zero) # 200 <tgt_HEAP_SIZE+0x200>
8000d438:	2020                	fld	fs0,64(s0)
8000d43a:	0d202323          	sw	s2,198(zero) # c6 <tgt_HEAP_SIZE+0xc6>
8000d43e:	230a                	fld	ft6,128(sp)
8000d440:	20202023          	sw	sp,512(zero) # 200 <tgt_HEAP_SIZE+0x200>
8000d444:	2020                	fld	fs0,64(s0)
8000d446:	20202323          	sw	sp,518(zero) # 206 <tgt_HEAP_SIZE+0x206>
8000d44a:	20202323          	sw	sp,518(zero) # 206 <tgt_HEAP_SIZE+0x206>
8000d44e:	2320                	fld	fs0,64(a4)
8000d450:	23202023          	sw	s2,544(zero) # 220 <tgt_HEAP_SIZE+0x220>
8000d454:	20202023          	sw	sp,512(zero) # 200 <tgt_HEAP_SIZE+0x200>
8000d458:	2020                	fld	fs0,64(s0)
8000d45a:	2020                	fld	fs0,64(s0)
8000d45c:	20202323          	sw	sp,518(zero) # 206 <tgt_HEAP_SIZE+0x206>
8000d460:	20202323          	sw	sp,518(zero) # 206 <tgt_HEAP_SIZE+0x206>
8000d464:	2320                	fld	fs0,64(a4)
8000d466:	20202023          	sw	sp,512(zero) # 200 <tgt_HEAP_SIZE+0x200>
8000d46a:	2020                	fld	fs0,64(s0)
8000d46c:	2020                	fld	fs0,64(s0)
8000d46e:	20202323          	sw	sp,518(zero) # 206 <tgt_HEAP_SIZE+0x206>
8000d472:	2020                	fld	fs0,64(s0)
8000d474:	2320                	fld	fs0,64(a4)
8000d476:	0a0d2023          	sw	zero,160(s10)
8000d47a:	23232323          	sw	s2,550(t1)
8000d47e:	23232323          	sw	s2,550(t1)
8000d482:	23232023          	sw	s2,544(t1)
8000d486:	2020                	fld	fs0,64(s0)
8000d488:	2020                	fld	fs0,64(s0)
8000d48a:	2320                	fld	fs0,64(a4)
8000d48c:	23232023          	sw	s2,544(t1)
8000d490:	2020                	fld	fs0,64(s0)
8000d492:	2020                	fld	fs0,64(s0)
8000d494:	2020                	fld	fs0,64(s0)
8000d496:	2320                	fld	fs0,64(a4)
8000d498:	23232323          	sw	s2,550(t1)
8000d49c:	2020                	fld	fs0,64(s0)
8000d49e:	2020                	fld	fs0,64(s0)
8000d4a0:	23232323          	sw	s2,550(t1)
8000d4a4:	20202323          	sw	sp,518(zero) # 206 <tgt_HEAP_SIZE+0x206>
8000d4a8:	2320                	fld	fs0,64(a4)
8000d4aa:	20202023          	sw	sp,512(zero) # 200 <tgt_HEAP_SIZE+0x200>
8000d4ae:	2020                	fld	fs0,64(s0)
8000d4b0:	0d202323          	sw	s2,198(zero) # c6 <tgt_HEAP_SIZE+0xc6>
8000d4b4:	230a                	fld	ft6,128(sp)
8000d4b6:	20202023          	sw	sp,512(zero) # 200 <tgt_HEAP_SIZE+0x200>
8000d4ba:	2020                	fld	fs0,64(s0)
8000d4bc:	23202323          	sw	s2,550(zero) # 226 <tgt_HEAP_SIZE+0x226>
8000d4c0:	23232323          	sw	s2,550(t1)
8000d4c4:	23232323          	sw	s2,550(t1)
8000d4c8:	2320                	fld	fs0,64(a4)
8000d4ca:	20202023          	sw	sp,512(zero) # 200 <tgt_HEAP_SIZE+0x200>
8000d4ce:	2020                	fld	fs0,64(s0)
8000d4d0:	2020                	fld	fs0,64(s0)
8000d4d2:	20202323          	sw	sp,518(zero) # 206 <tgt_HEAP_SIZE+0x206>
8000d4d6:	20202323          	sw	sp,518(zero) # 206 <tgt_HEAP_SIZE+0x206>
8000d4da:	2320                	fld	fs0,64(a4)
8000d4dc:	20202023          	sw	sp,512(zero) # 200 <tgt_HEAP_SIZE+0x200>
8000d4e0:	2020                	fld	fs0,64(s0)
8000d4e2:	2020                	fld	fs0,64(s0)
8000d4e4:	20202323          	sw	sp,518(zero) # 206 <tgt_HEAP_SIZE+0x206>
8000d4e8:	2020                	fld	fs0,64(s0)
8000d4ea:	2320                	fld	fs0,64(a4)
8000d4ec:	0a0d2023          	sw	zero,160(s10)
8000d4f0:	20202323          	sw	sp,518(zero) # 206 <tgt_HEAP_SIZE+0x206>
8000d4f4:	2020                	fld	fs0,64(s0)
8000d4f6:	2320                	fld	fs0,64(a4)
8000d4f8:	23232023          	sw	s2,544(t1)
8000d4fc:	2020                	fld	fs0,64(s0)
8000d4fe:	2020                	fld	fs0,64(s0)
8000d500:	2320                	fld	fs0,64(a4)
8000d502:	23232023          	sw	s2,544(t1)
8000d506:	2020                	fld	fs0,64(s0)
8000d508:	2020                	fld	fs0,64(s0)
8000d50a:	23202323          	sw	s2,550(zero) # 226 <tgt_HEAP_SIZE+0x226>
8000d50e:	20202023          	sw	sp,512(zero) # 200 <tgt_HEAP_SIZE+0x200>
8000d512:	20202323          	sw	sp,518(zero) # 206 <tgt_HEAP_SIZE+0x206>
8000d516:	20202323          	sw	sp,518(zero) # 206 <tgt_HEAP_SIZE+0x206>
8000d51a:	2020                	fld	fs0,64(s0)
8000d51c:	2020                	fld	fs0,64(s0)
8000d51e:	2320                	fld	fs0,64(a4)
8000d520:	20202023          	sw	sp,512(zero) # 200 <tgt_HEAP_SIZE+0x200>
8000d524:	2020                	fld	fs0,64(s0)
8000d526:	0d202323          	sw	s2,198(zero) # c6 <tgt_HEAP_SIZE+0xc6>
8000d52a:	230a                	fld	ft6,128(sp)
8000d52c:	20202023          	sw	sp,512(zero) # 200 <tgt_HEAP_SIZE+0x200>
8000d530:	2020                	fld	fs0,64(s0)
8000d532:	23202323          	sw	s2,550(zero) # 226 <tgt_HEAP_SIZE+0x226>
8000d536:	20202023          	sw	sp,512(zero) # 200 <tgt_HEAP_SIZE+0x200>
8000d53a:	2020                	fld	fs0,64(s0)
8000d53c:	20202323          	sw	sp,518(zero) # 206 <tgt_HEAP_SIZE+0x206>
8000d540:	23232323          	sw	s2,550(t1)
8000d544:	20202323          	sw	sp,518(zero) # 206 <tgt_HEAP_SIZE+0x206>
8000d548:	20202323          	sw	sp,518(zero) # 206 <tgt_HEAP_SIZE+0x206>
8000d54c:	2020                	fld	fs0,64(s0)
8000d54e:	23202323          	sw	s2,550(zero) # 226 <tgt_HEAP_SIZE+0x226>
8000d552:	23232323          	sw	s2,550(t1)
8000d556:	20232323          	sw	sp,518(t1)
8000d55a:	23232323          	sw	s2,550(t1)
8000d55e:	23232323          	sw	s2,550(t1)
8000d562:	2020                	fld	fs0,64(s0)
8000d564:	0a0d                	addi	s4,s4,3
8000d566:	0000                	unimp
8000d568:	000c                	addi	a1,sp,0
8000d56a:	0000                	unimp
8000d56c:	000a                	0xa
8000d56e:	0000                	unimp
8000d570:	7325                	lui	t1,0xfffe9
8000d572:	00 02 00 00 00          	Address 0x000000008000d572 is out of bounds.


Disassembly of section .data:

8000d573 <__sbss2_end>:
8000d573:	0000                	unimp
8000d575:	0000                	unimp
8000d577:	00 2b 00 00 e8          	Address 0x000000008000d577 is out of bounds.

